; Function Attrs: mustprogress uwtable
define hidden noundef ptr @_ZN6spacer7manager10get_o_predEP9func_declj(ptr noundef nonnull align 8 dereferenceable(64) %this, ptr noundef %s, i32 noundef %idx) local_unnamed_addr #3 align 2 {
entry:
  %m_mux = getelementptr inbounds i8, ptr %this, i64 8
  %add.i = add i32 %idx, 1
  %call2 = tail call noundef ptr @_ZNK6spacer7sym_mux12find_by_declEP9func_declj(ptr noundef nonnull align 8 dereferenceable(56) %m_mux, ptr noundef %s, i32 noundef %add.i)
  %tobool.not = icmp eq ptr %call2, null
  br i1 %tobool.not, label %if.then, label %if.end

if.then:                                          ; preds = %entry
  tail call void @_ZN6spacer7sym_mux13register_declEP9func_decl(ptr noundef nonnull align 8 dereferenceable(56) %m_mux, ptr noundef %s)
  %call6 = tail call noundef ptr @_ZNK6spacer7sym_mux12find_by_declEP9func_declj(ptr noundef nonnull align 8 dereferenceable(56) %m_mux, ptr noundef %s, i32 noundef %add.i)
  br label %if.end

if.end:                                           ; preds = %if.then, %entry
  %res.0 = phi ptr [ %call2, %entry ], [ %call6, %if.then ]
  ret ptr %res.0
}